; Function Attrs: mustprogress nofree norecurse nosync nounwind willreturn memory(read, argmem: write, inaccessiblemem: none) uwtable
define void @_ZN7mitsuba6StreamC2Ev(ptr nocapture noundef nonnull writeonly align 8 dereferenceable(16) %0) unnamed_addr #0 align 2 {
  %2 = getelementptr inbounds i8, ptr %0, i64 8
  store i32 0, ptr %2, align 8
  store ptr getelementptr inbounds inrange(-16, 176) ({ [24 x ptr] }, ptr @_ZTVN7mitsuba6StreamE, i64 0, i32 0, i64 2), ptr %0, align 8
  %3 = getelementptr inbounds i8, ptr %0, i64 12
  %4 = load i32, ptr @_ZN7mitsuba6Stream17m_host_byte_orderE, align 4
  store i32 %4, ptr %3, align 4
  ret void
}